target datalayout = "e-m:e-p270:32:32-p271:32:32-p272:64:64-i64:64-i128:128-f80:128-n8:16:32:64-S128"
target triple = "x86_64-pc-linux-gnu"

%"struct.dtm_t::req" = type { i32, i32, i32 }
%class.dtm_t = type { %class.htif_t, %class.context_t, ptr, i64, %union.sem_t, %union.sem_t, %union.sem_t, %union.sem_t, %"struct.dtm_t::req", %"struct.dtm_t::resp", i8, i8, i8, i32, i32, i64, i64, i32, i32 }
%class.htif_t = type { %class.chunked_memif_t, i32, %class.memif_t, i64, i8, %"class.std::vector", %"class.std::vector", %"class.std::__cxx11::basic_string", i32, i64, i64, i64, i64, i32, i8, %class.device_list_t, %class.syscall_t, %class.bcd_t, %"class.std::vector.3", %"class.std::vector", %"class.std::vector", %"class.std::map" }
%class.chunked_memif_t = type { ptr }
%class.memif_t = type { ptr, ptr }
%"class.std::__cxx11::basic_string" = type { %"struct.std::__cxx11::basic_string<char>::_Alloc_hider", i64, %union.anon }
%"struct.std::__cxx11::basic_string<char>::_Alloc_hider" = type { ptr }
%union.anon = type { i64, [8 x i8] }
%class.device_list_t = type { %"class.std::vector.3", %class.null_device_t, i64 }
%class.null_device_t = type { %class.device_t }
%class.device_t = type { ptr, %"class.std::vector.8", %"class.std::vector" }
%"class.std::vector.8" = type { %"struct.std::_Vector_base.9" }
%"struct.std::_Vector_base.9" = type { %"struct.std::_Vector_base<std::function<void (command_t)>, std::allocator<std::function<void (command_t)>>>::_Vector_impl" }
%"struct.std::_Vector_base<std::function<void (command_t)>, std::allocator<std::function<void (command_t)>>>::_Vector_impl" = type { %"struct.std::_Vector_base<std::function<void (command_t)>, std::allocator<std::function<void (command_t)>>>::_Vector_impl_data" }
%"struct.std::_Vector_base<std::function<void (command_t)>, std::allocator<std::function<void (command_t)>>>::_Vector_impl_data" = type { ptr, ptr, ptr }
%class.syscall_t = type { %class.device_t, ptr, ptr, %"class.std::vector.13", %class.fds_t, %"class.std::vector.23", %"class.std::__cxx11::basic_string" }
%"class.std::vector.13" = type { %"struct.std::_Vector_base.14" }
%"struct.std::_Vector_base.14" = type { %"struct.std::_Vector_base<unsigned long (syscall_t::*)(unsigned long, unsigned long, unsigned long, unsigned long, unsigned long, unsigned long, unsigned long), std::allocator<unsigned long (syscall_t::*)(unsigned long, unsigned long, unsigned long, unsigned long, unsigned long, unsigned long, unsigned long)>>::_Vector_impl" }
%"struct.std::_Vector_base<unsigned long (syscall_t::*)(unsigned long, unsigned long, unsigned long, unsigned long, unsigned long, unsigned long, unsigned long), std::allocator<unsigned long (syscall_t::*)(unsigned long, unsigned long, unsigned long, unsigned long, unsigned long, unsigned long, unsigned long)>>::_Vector_impl" = type { %"struct.std::_Vector_base<unsigned long (syscall_t::*)(unsigned long, unsigned long, unsigned long, unsigned long, unsigned long, unsigned long, unsigned long), std::allocator<unsigned long (syscall_t::*)(unsigned long, unsigned long, unsigned long, unsigned long, unsigned long, unsigned long, unsigned long)>>::_Vector_impl_data" }
%"struct.std::_Vector_base<unsigned long (syscall_t::*)(unsigned long, unsigned long, unsigned long, unsigned long, unsigned long, unsigned long, unsigned long), std::allocator<unsigned long (syscall_t::*)(unsigned long, unsigned long, unsigned long, unsigned long, unsigned long, unsigned long, unsigned long)>>::_Vector_impl_data" = type { ptr, ptr, ptr }
%class.fds_t = type { %"class.std::vector.18" }
%"class.std::vector.18" = type { %"struct.std::_Vector_base.19" }
%"struct.std::_Vector_base.19" = type { %"struct.std::_Vector_base<int, std::allocator<int>>::_Vector_impl" }
%"struct.std::_Vector_base<int, std::allocator<int>>::_Vector_impl" = type { %"struct.std::_Vector_base<int, std::allocator<int>>::_Vector_impl_data" }
%"struct.std::_Vector_base<int, std::allocator<int>>::_Vector_impl_data" = type { ptr, ptr, ptr }
%"class.std::vector.23" = type { %"struct.std::_Vector_base.24" }
%"struct.std::_Vector_base.24" = type { %"struct.std::_Vector_base<unsigned long, std::allocator<unsigned long>>::_Vector_impl" }
%"struct.std::_Vector_base<unsigned long, std::allocator<unsigned long>>::_Vector_impl" = type { %"struct.std::_Vector_base<unsigned long, std::allocator<unsigned long>>::_Vector_impl_data" }
%"struct.std::_Vector_base<unsigned long, std::allocator<unsigned long>>::_Vector_impl_data" = type { ptr, ptr, ptr }
%class.bcd_t = type { %class.device_t, %"class.std::queue" }
%"class.std::queue" = type { %"class.std::deque" }
%"class.std::deque" = type { %"class.std::_Deque_base" }
%"class.std::_Deque_base" = type { %"struct.std::_Deque_base<command_t, std::allocator<command_t>>::_Deque_impl" }
%"struct.std::_Deque_base<command_t, std::allocator<command_t>>::_Deque_impl" = type { %"struct.std::_Deque_base<command_t, std::allocator<command_t>>::_Deque_impl_data" }
%"struct.std::_Deque_base<command_t, std::allocator<command_t>>::_Deque_impl_data" = type { ptr, i64, %"struct.std::_Deque_iterator", %"struct.std::_Deque_iterator" }
%"struct.std::_Deque_iterator" = type { ptr, ptr, ptr, ptr }
%"class.std::vector.3" = type { %"struct.std::_Vector_base.4" }
%"struct.std::_Vector_base.4" = type { %"struct.std::_Vector_base<device_t *, std::allocator<device_t *>>::_Vector_impl" }
%"struct.std::_Vector_base<device_t *, std::allocator<device_t *>>::_Vector_impl" = type { %"struct.std::_Vector_base<device_t *, std::allocator<device_t *>>::_Vector_impl_data" }
%"struct.std::_Vector_base<device_t *, std::allocator<device_t *>>::_Vector_impl_data" = type { ptr, ptr, ptr }
%"class.std::vector" = type { %"struct.std::_Vector_base" }
%"struct.std::_Vector_base" = type { %"struct.std::_Vector_base<std::__cxx11::basic_string<char>, std::allocator<std::__cxx11::basic_string<char>>>::_Vector_impl" }
%"struct.std::_Vector_base<std::__cxx11::basic_string<char>, std::allocator<std::__cxx11::basic_string<char>>>::_Vector_impl" = type { %"struct.std::_Vector_base<std::__cxx11::basic_string<char>, std::allocator<std::__cxx11::basic_string<char>>>::_Vector_impl_data" }
%"struct.std::_Vector_base<std::__cxx11::basic_string<char>, std::allocator<std::__cxx11::basic_string<char>>>::_Vector_impl_data" = type { ptr, ptr, ptr }
%"class.std::map" = type { %"class.std::_Rb_tree" }
%"class.std::_Rb_tree" = type { %"struct.std::_Rb_tree<unsigned long, std::pair<const unsigned long, std::__cxx11::basic_string<char>>, std::_Select1st<std::pair<const unsigned long, std::__cxx11::basic_string<char>>>, std::less<unsigned long>>::_Rb_tree_impl" }
%"struct.std::_Rb_tree<unsigned long, std::pair<const unsigned long, std::__cxx11::basic_string<char>>, std::_Select1st<std::pair<const unsigned long, std::__cxx11::basic_string<char>>>, std::less<unsigned long>>::_Rb_tree_impl" = type { %"struct.std::_Rb_tree_key_compare", %"struct.std::_Rb_tree_header" }
%"struct.std::_Rb_tree_key_compare" = type { %"struct.std::less" }
%"struct.std::less" = type { i8 }
%"struct.std::_Rb_tree_header" = type { %"struct.std::_Rb_tree_node_base", i64 }
%"struct.std::_Rb_tree_node_base" = type { i32, ptr, ptr, ptr }
%class.context_t = type { ptr, ptr, ptr, %"class.std::unique_ptr" }
%"class.std::unique_ptr" = type { %"struct.std::__uniq_ptr_data" }
%"struct.std::__uniq_ptr_data" = type { %"class.std::__uniq_ptr_impl" }
%"class.std::__uniq_ptr_impl" = type { %"class.std::tuple" }
%"class.std::tuple" = type { %"struct.std::_Tuple_impl" }
%"struct.std::_Tuple_impl" = type { %"struct.std::_Head_base.35" }
%"struct.std::_Head_base.35" = type { ptr }
%union.sem_t = type { i64, [24 x i8] }
%"struct.dtm_t::resp" = type { i32, i32 }

@__const._ZN5dtm_t3dieEj.codes = private unnamed_addr constant [5 x ptr] [ptr @.str, ptr @.str.1, ptr @.str.2, ptr @.str.3, ptr @.str.4], align 16
@.str.5 = private unnamed_addr constant [6 x i8] c"OTHER\00", align 1
@.str.6 = private unnamed_addr constant [52 x i8] c"ERROR: %s:%d, Debug Abstract Command Error #%d (%s)\00", align 1
@.str.7 = private unnamed_addr constant [30 x i8] c"../riscv-isa-sim/fesvr/dtm.cc\00", align 1
@.str.8 = private unnamed_addr constant [72 x i8] c"ERROR: %s:%d, Should die, but allowing simulation to continue and fail.\00", align 1

; Function Attrs: mustprogress uwtable
define noundef i32 @_ZN5dtm_t10do_commandENS_3reqE(ptr noundef nonnull align 8 dereferenceable(928) %0, i64 %1, i32 %2) #0 align 2 {
  %4 = alloca %"struct.dtm_t::req", align 4
  %5 = alloca { i64, i32 }, align 4
  %6 = alloca ptr, align 8
  %7 = getelementptr inbounds { i64, i32 }, ptr %5, i32 0, i32 0
  store i64 %1, ptr %7, align 4
  %8 = getelementptr inbounds { i64, i32 }, ptr %5, i32 0, i32 1
  store i32 %2, ptr %8, align 4
  call void @llvm.memcpy.p0.p0.i64(ptr align 4 %4, ptr align 4 %5, i64 12, i1 false)
  store ptr %0, ptr %6, align 8
  %9 = load ptr, ptr %6, align 8
  %10 = getelementptr inbounds %class.dtm_t, ptr %9, i32 0, i32 8
  call void @llvm.memcpy.p0.p0.i64(ptr align 8 %10, ptr align 4 %4, i64 12, i1 false)
  %11 = getelementptr inbounds %class.dtm_t, ptr %9, i32 0, i32 2
  %12 = load ptr, ptr %11, align 8
  call void @_ZN9context_t9switch_toEv(ptr noundef nonnull align 8 dereferenceable(32) %12)
  %13 = getelementptr inbounds %class.dtm_t, ptr %9, i32 0, i32 9
  %14 = getelementptr inbounds %"struct.dtm_t::resp", ptr %13, i32 0, i32 1
  %15 = load i32, ptr %14, align 4
  ret i32 %15
}

; Function Attrs: mustprogress uwtable
define noundef i32 @_ZN5dtm_t5writeEjj(ptr noundef nonnull align 8 dereferenceable(928) %0, i32 noundef %1, i32 noundef %2) #0 align 2 {
  %4 = alloca ptr, align 8
  %5 = alloca i32, align 4
  %6 = alloca i32, align 4
  %7 = alloca %"struct.dtm_t::req", align 4
  %8 = alloca { i64, i32 }, align 4
  store ptr %0, ptr %4, align 8
  store i32 %1, ptr %5, align 4
  store i32 %2, ptr %6, align 4
  %9 = load ptr, ptr %4, align 8
  %10 = getelementptr inbounds %"struct.dtm_t::req", ptr %7, i32 0, i32 0
  %11 = load i32, ptr %5, align 4
  store i32 %11, ptr %10, align 4
  %12 = getelementptr inbounds %"struct.dtm_t::req", ptr %7, i32 0, i32 1
  store i32 2, ptr %12, align 4
  %13 = getelementptr inbounds %"struct.dtm_t::req", ptr %7, i32 0, i32 2
  %14 = load i32, ptr %6, align 4
  store i32 %14, ptr %13, align 4
  call void @llvm.memcpy.p0.p0.i64(ptr align 4 %8, ptr align 4 %7, i64 12, i1 false)
  %15 = getelementptr inbounds { i64, i32 }, ptr %8, i32 0, i32 0
  %16 = load i64, ptr %15, align 4
  %17 = getelementptr inbounds { i64, i32 }, ptr %8, i32 0, i32 1
  %18 = load i32, ptr %17, align 4
  %19 = call noundef i32 @_ZN5dtm_t10do_commandENS_3reqE(ptr noundef nonnull align 8 dereferenceable(928) %9, i64 %16, i32 %18)
  ret i32 %19
}

; Function Attrs: mustprogress uwtable
define void @_ZN5dtm_t3dieEj(ptr noundef nonnull align 8 dereferenceable(928) %0, i32 noundef %1) #0 align 2 {
  %3 = alloca ptr, align 8
  %4 = alloca i32, align 4
  %5 = alloca [5 x ptr], align 16
  %6 = alloca ptr, align 8
  store ptr %0, ptr %3, align 8
  store i32 %1, ptr %4, align 4
  %7 = load ptr, ptr %3, align 8
  call void @llvm.memcpy.p0.p0.i64(ptr align 16 %5, ptr align 16 @__const._ZN5dtm_t3dieEj.codes, i64 40, i1 false)
  %8 = load i32, ptr %4, align 4
  %9 = zext i32 %8 to i64
  %10 = icmp ult i64 %9, 5
  br i1 %10, label %11, label %16

11:                                               ; preds = %2
  %12 = load i32, ptr %4, align 4
  %13 = zext i32 %12 to i64
  %14 = getelementptr inbounds [5 x ptr], ptr %5, i64 0, i64 %13
  %15 = load ptr, ptr %14, align 8
  store ptr %15, ptr %6, align 8
  br label %17

16:                                               ; preds = %2
  store ptr @.str.5, ptr %6, align 8
  br label %17

17:                                               ; preds = %16, %11
  %18 = load i32, ptr %4, align 4
  %19 = load ptr, ptr %6, align 8
  %20 = call i32 (ptr, ...) @printf(ptr noundef @.str.6, ptr noundef @.str.7, i32 noundef 357, i32 noundef %18, ptr noundef %19)
  %21 = call i32 (ptr, ...) @printf(ptr noundef @.str.8, ptr noundef @.str.7, i32 noundef 358)
  %22 = call noundef i32 @_ZN5dtm_t5writeEjj(ptr noundef nonnull align 8 dereferenceable(928) %7, i32 noundef 22, i32 noundef 1792)
  ret void
}

; Function Attrs: mustprogress uwtable
define void @_ZN5dtm_t11restore_regEjm(ptr noundef nonnull align 8 dereferenceable(928) %0, i32 noundef %1, i64 noundef %2) #0 align 2 {
  %4 = alloca ptr, align 8
  %5 = alloca i32, align 4
  %6 = alloca i64, align 8
  %7 = alloca ptr, align 8
  %8 = alloca i64, align 8
  %9 = alloca i32, align 4
  %10 = alloca i32, align 4
  store ptr %0, ptr %4, align 8
  store i32 %1, ptr %5, align 4
  store i64 %2, ptr %6, align 8
  %11 = load ptr, ptr %4, align 8
  %12 = getelementptr inbounds %class.dtm_t, ptr %11, i32 0, i32 14
  %13 = load i32, ptr %12, align 4
  %14 = udiv i32 %13, 32
  %15 = zext i32 %14 to i64
  %16 = call ptr @llvm.stacksave.p0()
  store ptr %16, ptr %7, align 8
  %17 = alloca i32, i64 %15, align 16
  store i64 %15, ptr %8, align 8
  %18 = load i64, ptr %6, align 8
  %19 = trunc i64 %18 to i32
  %20 = getelementptr inbounds i32, ptr %17, i64 0
  store i32 %19, ptr %20, align 16
  %21 = getelementptr inbounds %class.dtm_t, ptr %11, i32 0, i32 14
  %22 = load i32, ptr %21, align 4
  %23 = icmp ugt i32 %22, 32
  br i1 %23, label %24, label %29

24:                                               ; preds = %3
  %25 = load i64, ptr %6, align 8
  %26 = lshr i64 %25, 32
  %27 = trunc i64 %26 to i32
  %28 = getelementptr inbounds i32, ptr %17, i64 1
  store i32 %27, ptr %28, align 4
  br label %29

29:                                               ; preds = %24, %3
  %30 = getelementptr inbounds %class.dtm_t, ptr %11, i32 0, i32 14
  %31 = load i32, ptr %30, align 4
  %32 = icmp eq i32 %31, 128
  br i1 %32, label %33, label %34

33:                                               ; preds = %29
  br label %39

34:                                               ; preds = %29
  %35 = getelementptr inbounds %class.dtm_t, ptr %11, i32 0, i32 14
  %36 = load i32, ptr %35, align 4
  %37 = icmp eq i32 %36, 64
  %38 = select i1 %37, i32 3, i32 2
  br label %39

39:                                               ; preds = %34, %33
  %40 = phi i32 [ 4, %33 ], [ %38, %34 ]
  %41 = shl i32 %40, 20
  %42 = or i32 196608, %41
  %43 = load i32, ptr %5, align 4
  %44 = or i32 4096, %43
  %45 = shl i32 %44, 0
  %46 = or i32 %42, %45
  store i32 %46, ptr %9, align 4
  %47 = load i32, ptr %9, align 4
  %48 = getelementptr inbounds %class.dtm_t, ptr %11, i32 0, i32 14
  %49 = load i32, ptr %48, align 4
  %50 = udiv i32 %49, 32
  %51 = zext i32 %50 to i64
  %52 = call noundef i32 @_ZN5dtm_t20run_abstract_commandEjPKjmPjm(ptr noundef nonnull align 8 dereferenceable(928) %11, i32 noundef %47, ptr noundef null, i64 noundef 0, ptr noundef %17, i64 noundef %51)
  store i32 %52, ptr %10, align 4
  %53 = load i32, ptr %10, align 4
  %54 = icmp ne i32 %53, 0
  br i1 %54, label %55, label %57

55:                                               ; preds = %39
  %56 = load i32, ptr %10, align 4
  call void @_ZN5dtm_t3dieEj(ptr noundef nonnull align 8 dereferenceable(928) %11, i32 noundef %56)
  br label %57

57:                                               ; preds = %55, %39
  %58 = load ptr, ptr %7, align 8
  call void @llvm.stackrestore.p0(ptr %58)
  ret void
}