; Function Attrs: mustprogress uwtable
define void @_ZN5dtm_t11restore_regEjm(ptr nocapture noundef nonnull align 8 dereferenceable(928) %0, i32 noundef %1, i64 noundef %2) local_unnamed_addr #0 align 2 {
  %4 = getelementptr inbounds i8, ptr %0, i64 900
  %5 = load i32, ptr %4, align 4
  %6 = lshr i32 %5, 5
  %7 = zext nneg i32 %6 to i64
  %8 = alloca i32, i64 %7, align 16
  %9 = trunc i64 %2 to i32
  store i32 %9, ptr %8, align 16
  %10 = icmp ugt i32 %5, 32
  br i1 %10, label %11, label %15

11:                                               ; preds = %3
  %12 = lshr i64 %2, 32
  %13 = trunc i64 %12 to i32
  %14 = getelementptr inbounds i8, ptr %8, i64 4
  store i32 %13, ptr %14, align 4
  br label %15

15:                                               ; preds = %11, %3
  %16 = icmp eq i32 %5, 128
  %17 = icmp eq i32 %5, 64
  %18 = select i1 %17, i32 3342336, i32 2293760
  %19 = select i1 %16, i32 4390912, i32 %18
  %20 = or i32 %19, %1
  %21 = or i32 %20, 4096
  %22 = call noundef i32 @_ZN5dtm_t20run_abstract_commandEjPKjmPjm(ptr noundef nonnull align 8 dereferenceable(928) %0, i32 noundef %21, ptr noundef null, i64 noundef 0, ptr noundef nonnull %8, i64 noundef %7), !range !8
  %.not = icmp eq i32 %22, 0
  br i1 %.not, label %34, label %23

23:                                               ; preds = %15
  %24 = icmp ult i32 %22, 5
  br i1 %24, label %25, label %_ZN5dtm_t3dieEj.exit

25:                                               ; preds = %23
  %26 = zext nneg i32 %22 to i64
  %27 = getelementptr inbounds [5 x ptr], ptr @__const._ZN5dtm_t3dieEj.codes, i64 0, i64 %26
  %28 = load ptr, ptr %27, align 8
  br label %_ZN5dtm_t3dieEj.exit

_ZN5dtm_t3dieEj.exit:                             ; preds = %23, %25
  %.0.i = phi ptr [ %28, %25 ], [ @.str.5, %23 ]
  %29 = tail call i32 (ptr, ...) @printf(ptr noundef nonnull dereferenceable(1) @.str.6, ptr noundef nonnull @.str.7, i32 noundef 357, i32 noundef %22, ptr noundef %.0.i)
  %30 = tail call i32 (ptr, ...) @printf(ptr noundef nonnull dereferenceable(1) @.str.8, ptr noundef nonnull @.str.7, i32 noundef 358)
  %31 = getelementptr inbounds i8, ptr %0, i64 872
  store i64 8589934614, ptr %31, align 8
  %.sroa.22.0..sroa_idx.i.i.i = getelementptr inbounds i8, ptr %0, i64 880
  store i32 1792, ptr %.sroa.22.0..sroa_idx.i.i.i, align 8
  %32 = getelementptr inbounds i8, ptr %0, i64 728
  %33 = load ptr, ptr %32, align 8
  tail call void @_ZN9context_t9switch_toEv(ptr noundef nonnull align 8 dereferenceable(32) %33)
  br label %34

34:                                               ; preds = %_ZN5dtm_t3dieEj.exit, %15
  ret void
}